Certificate:
    Data:
        Version: 3 (0x2)
        Serial Number:
            90:24:0e:75:40:c4:52:f4:b2:e2:2d:2a:fe:7e:99:d4
        Signature Algorithm: sha256WithRSAEncryption
        Issuer: CN=Zwischenton Development Root CA
        Validity
            Not Before: Apr 22 18:15:41 2025 GMT
            Not After : Jul 26 18:15:41 2027 GMT
        Subject: CN=*.zwischenton.dev
        Subject Public Key Info:
            Public Key Algorithm: rsaEncryption
                Public-Key: (2048 bit)
                Modulus:
                    00:a8:91:bc:2d:d6:db:6d:fb:c5:12:b3:8a:67:49:
                    71:40:3c:d3:80:a6:20:a9:1f:43:a9:19:89:14:0c:
                    a8:91:c0:04:4f:f0:64:6d:72:6f:3f:c7:f7:84:53:
                    be:f3:7b:65:ee:20:13:9d:58:86:30:fd:29:55:f0:
                    88:d3:84:94:3b:73:fe:04:a8:da:41:93:8c:93:7d:
                    12:cb:77:0f:fb:08:09:8a:5d:25:3f:c8:4a:46:7a:
                    9c:ae:89:08:f2:cf:b4:51:bc:23:f6:1a:9d:ce:f2:
                    da:48:26:75:e6:1a:2d:4f:76:d6:d5:2c:8d:1d:7d:
                    9d:66:59:43:86:1a:74:c8:93:cf:84:7c:87:70:38:
                    7a:28:dd:b6:6e:fd:b6:31:90:05:2f:9a:9c:25:4f:
                    7f:06:7a:7a:d4:16:8f:0c:50:fc:2a:7a:8b:ce:cc:
                    d9:2d:24:61:78:dc:13:c0:45:79:49:78:4c:68:b7:
                    5e:9f:83:21:dc:43:bf:c7:32:d2:58:91:7c:cd:ba:
                    f3:ad:45:8a:77:b8:bc:06:e7:25:c2:75:3f:68:ac:
                    34:14:58:6b:d2:fb:9b:c2:63:dd:b2:8f:6e:f0:96:
                    30:40:e5:da:38:91:7f:20:3a:b8:a6:0c:f5:53:7c:
                    83:12:89:cf:53:f2:4d:c0:a9:56:15:7b:f3:b7:00:
                    2a:67
                Exponent: 65537 (0x10001)
        X509v3 extensions:
            X509v3 Basic Constraints: 
                CA:FALSE
            X509v3 Subject Key Identifier: 
                B9:20:BC:A4:12:E8:7B:69:00:1E:C4:61:21:73:5D:DC:1D:DD:A9:11
            X509v3 Authority Key Identifier: 
                keyid:FF:DE:4C:9E:06:28:3B:BE:AE:FF:40:C9:2E:18:86:DA:B8:10:A7:BD
                DirName:/CN=Zwischenton Development Root CA
                serial:2C:8D:58:3A:92:A0:49:3C:89:3E:D7:6B:46:D0:E6:72:AA:10:1C:28
            X509v3 Extended Key Usage: 
                TLS Web Server Authentication, TLS Web Client Authentication
            X509v3 Key Usage: 
                Digital Signature, Key Encipherment
            X509v3 Subject Alternative Name: 
                DNS:*.zwischenton.dev
    Signature Algorithm: sha256WithRSAEncryption
    Signature Value:
        72:84:32:f3:24:90:ec:85:8a:39:df:ec:a2:c5:68:4e:62:0c:
        2c:ff:25:af:7d:58:ad:bf:01:24:5e:9d:c0:ad:ec:5c:29:0d:
        58:63:56:b5:de:1a:56:03:81:09:ee:0f:3c:eb:b6:1f:49:ae:
        db:1e:df:c3:06:46:e0:9e:dd:7f:93:5c:c6:49:12:f0:fe:f9:
        e4:6d:b9:98:0e:5d:0a:23:01:21:8e:f2:f6:b8:09:cb:d0:25:
        71:30:2f:65:64:05:b4:53:f9:1e:21:67:5e:6a:e8:29:47:d4:
        7d:d6:26:a7:6b:2c:46:5e:d6:85:9a:20:fc:6f:39:f1:e9:11:
        d9:8d:e4:fc:ea:35:6e:6c:4c:ed:98:0a:07:86:a9:ec:0a:3c:
        88:84:81:2a:3f:c3:58:87:f9:e1:52:c6:81:e2:3f:0a:0f:23:
        6e:fa:ac:54:4e:a9:cb:fe:4b:88:e6:aa:ec:72:81:6b:7f:de:
        3c:aa:cc:52:4f:51:f7:00:86:c2:a9:b3:ac:ed:81:ad:92:aa:
        f9:07:6e:bf:7d:f3:9a:69:f5:90:5a:e3:f3:85:15:87:28:7f:
        48:c0:13:9b:5f:03:0b:a6:31:dd:16:c0:d8:9b:85:2a:3e:24:
        ab:d0:63:9f:cc:04:7a:15:7b:22:3c:4d:17:7f:59:89:20:17:
        30:e8:c9:5c
-----BEGIN CERTIFICATE-----
MIIDsDCCApigAwIBAgIRAJAkDnVAxFL0suItKv5+mdQwDQYJKoZIhvcNAQELBQAw
KjEoMCYGA1UEAwwfWndpc2NoZW50b24gRGV2ZWxvcG1lbnQgUm9vdCBDQTAeFw0y
NTA0MjIxODE1NDFaFw0yNzA3MjYxODE1NDFaMBwxGjAYBgNVBAMMESouendpc2No
ZW50b24uZGV2MIIBIjANBgkqhkiG9w0BAQEFAAOCAQ8AMIIBCgKCAQEAqJG8Ldbb
bfvFErOKZ0lxQDzTgKYgqR9DqRmJFAyokcAET/BkbXJvP8f3hFO+83tl7iATnViG
MP0pVfCI04SUO3P+BKjaQZOMk30Sy3cP+wgJil0lP8hKRnqcrokI8s+0Ubwj9hqd
zvLaSCZ15hotT3bW1SyNHX2dZllDhhp0yJPPhHyHcDh6KN22bv22MZAFL5qcJU9/
Bnp61BaPDFD8KnqLzszZLSRheNwTwEV5SXhMaLden4Mh3EO/xzLSWJF8zbrzrUWK
d7i8BuclwnU/aKw0FFhr0vubwmPdso9u8JYwQOXaOJF/IDq4pgz1U3yDEonPU/JN
wKlWFXvztwAqZwIDAQABo4HeMIHbMAkGA1UdEwQCMAAwHQYDVR0OBBYEFLkgvKQS
6HtpAB7EYSFzXdwd3akRMGUGA1UdIwReMFyAFP/eTJ4GKDu+rv9AyS4Yhtq4EKe9
oS6kLDAqMSgwJgYDVQQDDB9ad2lzY2hlbnRvbiBEZXZlbG9wbWVudCBSb290IENB
ghQsjVg6kqBJPIk+12tG0OZyqhAcKDAdBgNVHSUEFjAUBggrBgEFBQcDAQYIKwYB
BQUHAwIwCwYDVR0PBAQDAgWgMBwGA1UdEQQVMBOCESouendpc2NoZW50b24uZGV2
MA0GCSqGSIb3DQEBCwUAA4IBAQByhDLzJJDshYo53+yixWhOYgws/yWvfVitvwEk
Xp3ArexcKQ1YY1a13hpWA4EJ7g8867YfSa7bHt/DBkbgnt1/k1zGSRLw/vnkbbmY
Dl0KIwEhjvL2uAnL0CVxMC9lZAW0U/keIWdeaugpR9R91ianayxGXtaFmiD8bznx
6RHZjeT86jVubEztmAoHhqnsCjyIhIEqP8NYh/nhUsaB4j8KDyNu+qxUTqnL/kuI
5qrscoFrf948qsxST1H3AIbCqbOs7YGtkqr5B26/ffOaafWQWuPzhRWHKH9IwBOb
XwMLpjHdFsDYm4UqPiSr0GOfzAR6FXsiPE0Xf1mJIBcw6Mlc
-----END CERTIFICATE-----
